target datalayout = "e-m:e-p270:32:32-p271:32:32-p272:64:64-i64:64-i128:128-f80:128-n8:16:32:64-S128"
target triple = "x86_64-pc-linux-gnu"

%struct.uv_loop_s = type { ptr, i32, %struct.uv__queue, %union.anon.2, ptr, i32, i64, i32, %struct.uv__queue, %struct.uv__queue, ptr, i32, i32, %struct.uv__queue, %union.pthread_mutex_t, %struct.uv_async_s, %union.pthread_rwlock_t, ptr, %struct.uv__queue, %struct.uv__queue, %struct.uv__queue, %struct.uv__queue, %struct.uv__queue, ptr, %struct.uv__io_s, i32, %struct.anon, i64, i64, [2 x i32], %struct.uv__io_s, %struct.uv_signal_s, i32, %struct.uv__io_s, ptr, i32 }
%union.anon.2 = type { ptr }
%union.pthread_mutex_t = type { %struct.__pthread_mutex_s }
%struct.__pthread_mutex_s = type { i32, i32, i32, i32, i32, i16, i16, %struct.__pthread_internal_list }
%struct.__pthread_internal_list = type { ptr, ptr }
%struct.uv_async_s = type { ptr, ptr, i32, ptr, %struct.uv__queue, %union.anon.3, ptr, i32, ptr, %struct.uv__queue, i32 }
%union.anon.3 = type { [4 x ptr] }
%union.pthread_rwlock_t = type { %struct.__pthread_rwlock_arch_t }
%struct.__pthread_rwlock_arch_t = type { i32, i32, i32, i32, i32, i32, i32, i32, i8, [7 x i8], i64, i32 }
%struct.uv__queue = type { ptr, ptr }
%struct.anon = type { ptr, i32 }
%struct.uv_signal_s = type { ptr, ptr, i32, ptr, %struct.uv__queue, %union.anon.4, ptr, i32, ptr, i32, %struct.anon.5, i32, i32 }
%union.anon.4 = type { [4 x ptr] }
%struct.anon.5 = type { ptr, ptr, ptr, i32 }
%struct.uv__io_s = type { ptr, %struct.uv__queue, %struct.uv__queue, i32, i32, i32 }

@default_loop_ptr = internal global ptr null, align 8
@default_loop_struct = internal global %struct.uv_loop_s zeroinitializer, align 8

; Function Attrs: nounwind uwtable
define dso_local ptr @uv_default_loop() #0 {
  %1 = alloca ptr, align 8
  %2 = load ptr, ptr @default_loop_ptr, align 8
  %3 = icmp ne ptr %2, null
  br i1 %3, label %4, label %6

4:                                                ; preds = %0
  %5 = load ptr, ptr @default_loop_ptr, align 8
  store ptr %5, ptr %1, align 8
  br label %12

6:                                                ; preds = %0
  %7 = call i32 @uv_loop_init(ptr noundef @default_loop_struct)
  %8 = icmp ne i32 %7, 0
  br i1 %8, label %9, label %10

9:                                                ; preds = %6
  store ptr null, ptr %1, align 8
  br label %12

10:                                               ; preds = %6
  store ptr @default_loop_struct, ptr @default_loop_ptr, align 8
  %11 = load ptr, ptr @default_loop_ptr, align 8
  store ptr %11, ptr %1, align 8
  br label %12

12:                                               ; preds = %10, %9, %4
  %13 = load ptr, ptr %1, align 8
  ret ptr %13
}